; Function Attrs: nounwind uwtable
define internal void @spatial_compose_fidelity_10bit(ptr noundef captures(none) %0, i32 noundef %1, i32 noundef %2, i32 noundef %3, i32 noundef %4) #0 {
  %6 = alloca [8 x ptr], align 16
  %7 = getelementptr inbounds nuw i8, ptr %0, i64 48
  %8 = load ptr, ptr %7, align 8, !tbaa !29
  %9 = getelementptr inbounds nuw i8, ptr %0, i64 56
  %10 = load ptr, ptr %9, align 8, !tbaa !29
  call void @llvm.lifetime.start.p0(i64 64, ptr nonnull %6) #6
  %11 = icmp sgt i32 %3, 1
  br i1 %11, label %.preheader53.lr.ph, label %.preheader52

.preheader53.lr.ph:                               ; preds = %5
  %12 = add nsw i32 %3, -2
  %13 = sext i32 %4 to i64
  %14 = zext nneg i32 %3 to i64
  br label %.preheader53

.preheader53:                                     ; preds = %.preheader53.lr.ph, %30
  %indvars.iv60 = phi i64 [ 1, %.preheader53.lr.ph ], [ %indvars.iv.next61, %30 ]
  %15 = load ptr, ptr %0, align 8, !tbaa !11
  %16 = add nsw i64 %indvars.iv60, -7
  br label %21

.preheader52:                                     ; preds = %30, %5
  %17 = icmp sgt i32 %3, 0
  br i1 %17, label %.preheader51.lr.ph, label %._crit_edge

.preheader51.lr.ph:                               ; preds = %.preheader52
  %18 = add nsw i32 %3, -1
  %19 = sext i32 %4 to i64
  %20 = zext nneg i32 %3 to i64
  br label %.preheader51

21:                                               ; preds = %.preheader53, %21
  %indvars.iv = phi i64 [ 0, %.preheader53 ], [ %indvars.iv.next, %21 ]
  %22 = shl nuw nsw i64 %indvars.iv, 1
  %23 = add nsw i64 %16, %22
  %24 = icmp slt i64 %23, 0
  %25 = trunc nsw i64 %23 to i32
  %..i49 = call i32 @llvm.smin.i32(i32 %25, i32 %12)
  %.0.i50 = select i1 %24, i32 0, i32 %..i49
  %26 = mul nsw i32 %.0.i50, %4
  %27 = sext i32 %26 to i64
  %28 = getelementptr inbounds i8, ptr %15, i64 %27
  %29 = getelementptr inbounds nuw [8 x ptr], ptr %6, i64 0, i64 %indvars.iv
  store ptr %28, ptr %29, align 8, !tbaa !22
  %indvars.iv.next = add nuw nsw i64 %indvars.iv, 1
  %exitcond.not = icmp eq i64 %indvars.iv.next, 8
  br i1 %exitcond.not, label %30, label %21, !llvm.loop !83

30:                                               ; preds = %21
  %31 = mul nsw i64 %indvars.iv60, %13
  %32 = getelementptr inbounds i8, ptr %15, i64 %31
  call void %10(ptr noundef %32, ptr noundef nonnull %6, i32 noundef %2) #6
  %indvars.iv.next61 = add nuw nsw i64 %indvars.iv60, 2
  %33 = icmp samesign ult i64 %indvars.iv.next61, %14
  br i1 %33, label %.preheader53, label %.preheader52, !llvm.loop !84

.preheader51:                                     ; preds = %.preheader51.lr.ph, %48
  %indvars.iv67 = phi i64 [ 0, %.preheader51.lr.ph ], [ %indvars.iv.next68, %48 ]
  %34 = load ptr, ptr %0, align 8, !tbaa !11
  %35 = add nsw i64 %indvars.iv67, -7
  br label %39

.lr.ph:                                           ; preds = %48
  %36 = getelementptr inbounds nuw i8, ptr %0, i64 88
  %37 = getelementptr inbounds nuw i8, ptr %0, i64 8
  %38 = sext i32 %4 to i64
  %wide.trip.count = zext nneg i32 %3 to i64
  br label %52

39:                                               ; preds = %.preheader51, %39
  %indvars.iv63 = phi i64 [ 0, %.preheader51 ], [ %indvars.iv.next64, %39 ]
  %40 = shl nuw nsw i64 %indvars.iv63, 1
  %41 = add nsw i64 %35, %40
  %42 = icmp slt i64 %41, 1
  %43 = trunc nsw i64 %41 to i32
  %..i = call i32 @llvm.smin.i32(i32 %43, i32 %18)
  %.0.i = select i1 %42, i32 1, i32 %..i
  %44 = mul nsw i32 %.0.i, %4
  %45 = sext i32 %44 to i64
  %46 = getelementptr inbounds i8, ptr %34, i64 %45
  %47 = getelementptr inbounds nuw [8 x ptr], ptr %6, i64 0, i64 %indvars.iv63
  store ptr %46, ptr %47, align 8, !tbaa !22
  %indvars.iv.next64 = add nuw nsw i64 %indvars.iv63, 1
  %exitcond66.not = icmp eq i64 %indvars.iv.next64, 8
  br i1 %exitcond66.not, label %48, label %39, !llvm.loop !85

48:                                               ; preds = %39
  %49 = mul nsw i64 %indvars.iv67, %19
  %50 = getelementptr inbounds i8, ptr %34, i64 %49
  call void %8(ptr noundef %50, ptr noundef nonnull %6, i32 noundef %2) #6
  %indvars.iv.next68 = add nuw nsw i64 %indvars.iv67, 2
  %51 = icmp samesign ult i64 %indvars.iv.next68, %20
  br i1 %51, label %.preheader51, label %.lr.ph, !llvm.loop !86

52:                                               ; preds = %.lr.ph, %52
  %indvars.iv70 = phi i64 [ 0, %.lr.ph ], [ %indvars.iv.next71, %52 ]
  %53 = load ptr, ptr %36, align 8, !tbaa !33
  %54 = load ptr, ptr %0, align 8, !tbaa !11
  %55 = mul nsw i64 %indvars.iv70, %38
  %56 = getelementptr inbounds i8, ptr %54, i64 %55
  %57 = load ptr, ptr %37, align 8, !tbaa !20
  call void %53(ptr noundef %56, ptr noundef %57, i32 noundef %2) #6
  %indvars.iv.next71 = add nuw nsw i64 %indvars.iv70, 1
  %exitcond73.not = icmp eq i64 %indvars.iv.next71, %wide.trip.count
  br i1 %exitcond73.not, label %._crit_edge, label %52, !llvm.loop !87

._crit_edge:                                      ; preds = %52, %.preheader52
  %58 = add nsw i32 %3, 1
  %59 = sext i32 %1 to i64
  %.idx = mul nsw i64 %59, 72
  %60 = getelementptr i8, ptr %0, i64 160
  %61 = getelementptr i8, ptr %60, i64 %.idx
  store i32 %58, ptr %61, align 8, !tbaa !23
  call void @llvm.lifetime.end.p0(i64 64, ptr nonnull %6) #6
  ret void
}